; Function Attrs: nounwind uwtable
define internal fastcc noundef zeroext i1 @sema_expr_is_valid_mask_for_value(ptr nocapture noundef readonly %0, ptr nocapture readonly %.0.val) unnamed_addr #0 {
  br label %2

2:                                                ; preds = %15, %1
  %.0.i = phi ptr [ %.0.val, %1 ], [ %.1.i, %15 ]
  %3 = getelementptr inbounds i8, ptr %.0.i, i64 8
  %4 = load ptr, ptr %3, align 8
  %5 = load i32, ptr %4, align 8
  switch i32 %5, label %type_flatten.exit [
    i32 32, label %6
    i32 40, label %12
    i32 31, label %14
  ]

6:                                                ; preds = %2
  %7 = getelementptr inbounds i8, ptr %4, i64 56
  %8 = load ptr, ptr %7, align 8
  %9 = getelementptr inbounds i8, ptr %8, i64 96
  %10 = load ptr, ptr %9, align 8
  %11 = getelementptr inbounds i8, ptr %10, i64 8
  br label %15

12:                                               ; preds = %2
  %13 = getelementptr inbounds i8, ptr %4, i64 56
  br label %15

14:                                               ; preds = %2
  tail call void (ptr, ...) @error_exit(ptr noundef nonnull @.str.5, ptr noundef nonnull @.str.6, ptr noundef nonnull @__func__.type_flatten, ptr noundef nonnull @.str.65, i32 noundef 2984) #5
  unreachable

15:                                               ; preds = %12, %6
  %.1.in.i = phi ptr [ %13, %12 ], [ %11, %6 ]
  %.1.i = load ptr, ptr %.1.in.i, align 8
  br label %2

type_flatten.exit:                                ; preds = %2
  %16 = getelementptr inbounds i8, ptr %4, i64 64
  %17 = load i32, ptr %16, align 8
  br label %18

18:                                               ; preds = %.backedge, %type_flatten.exit
  %.0.i4.in = phi ptr [ %0, %type_flatten.exit ], [ %.0.i4.in.be, %.backedge ]
  %.0.i4 = load ptr, ptr %.0.i4.in, align 8
  %19 = getelementptr inbounds i8, ptr %.0.i4, i64 8
  %20 = load ptr, ptr %19, align 8
  %21 = load i32, ptr %20, align 8
  switch i32 %21, label %type_flatten.exit7 [
    i32 32, label %22
    i32 40, label %28
    i32 31, label %30
  ]

22:                                               ; preds = %18
  %23 = getelementptr inbounds i8, ptr %20, i64 56
  %24 = load ptr, ptr %23, align 8
  %25 = getelementptr inbounds i8, ptr %24, i64 96
  %26 = load ptr, ptr %25, align 8
  %27 = getelementptr inbounds i8, ptr %26, i64 8
  br label %.backedge

28:                                               ; preds = %18
  %29 = getelementptr inbounds i8, ptr %20, i64 56
  br label %.backedge

.backedge:                                        ; preds = %28, %22
  %.0.i4.in.be = phi ptr [ %29, %28 ], [ %27, %22 ]
  br label %18

30:                                               ; preds = %18
  tail call void (ptr, ...) @error_exit(ptr noundef nonnull @.str.5, ptr noundef nonnull @.str.6, ptr noundef nonnull @__func__.type_flatten, ptr noundef nonnull @.str.65, i32 noundef 2984) #5
  unreachable

type_flatten.exit7:                               ; preds = %18
  %31 = getelementptr inbounds i8, ptr %20, i64 64
  %32 = load i32, ptr %31, align 8
  %.not = icmp eq i32 %17, %32
  br i1 %.not, label %36, label %33

33:                                               ; preds = %type_flatten.exit7
  %34 = getelementptr inbounds i8, ptr %0, i64 8
  %35 = load i64, ptr %34, align 8
  tail call void (i64, ptr, ...) @sema_error_at(i64 %35, ptr noundef nonnull @.str.66) #4
  br label %36

36:                                               ; preds = %type_flatten.exit7, %33
  ret i1 %.not
}